target datalayout = "e-m:e-p270:32:32-p271:32:32-p272:64:64-i64:64-i128:128-f80:128-n8:16:32:64-S128"
target triple = "x86_64-pc-linux-gnu"

@.str.2 = private unnamed_addr constant [19 x i8] c"fcntl(%d, F_GETFD)\00", align 1
@.str.3 = private unnamed_addr constant [19 x i8] c"fcntl(%d, F_SETFD)\00", align 1

; Function Attrs: nounwind uwtable
define i32 @evutil_make_socket_closeonexec(i32 noundef %0) #0 {
  %2 = alloca i32, align 4
  %3 = alloca i32, align 4
  %4 = alloca i32, align 4
  %5 = alloca i32, align 4
  store i32 %0, ptr %3, align 4
  call void @llvm.lifetime.start.p0(i64 4, ptr %4) #11
  %6 = load i32, ptr %3, align 4
  %7 = call i32 (i32, i32, ...) @fcntl(i32 noundef %6, i32 noundef 1, ptr noundef null)
  store i32 %7, ptr %4, align 4
  %8 = icmp slt i32 %7, 0
  br i1 %8, label %9, label %11

9:                                                ; preds = %1
  %10 = load i32, ptr %3, align 4
  call void (ptr, ...) @event_warn(ptr noundef @.str.2, i32 noundef %10)
  store i32 -1, ptr %2, align 4
  store i32 1, ptr %5, align 4
  br label %25

11:                                               ; preds = %1
  %12 = load i32, ptr %4, align 4
  %13 = and i32 %12, 1
  %14 = icmp ne i32 %13, 0
  br i1 %14, label %24, label %15

15:                                               ; preds = %11
  %16 = load i32, ptr %3, align 4
  %17 = load i32, ptr %4, align 4
  %18 = or i32 %17, 1
  %19 = call i32 (i32, i32, ...) @fcntl(i32 noundef %16, i32 noundef 2, i32 noundef %18)
  %20 = icmp eq i32 %19, -1
  br i1 %20, label %21, label %23

21:                                               ; preds = %15
  %22 = load i32, ptr %3, align 4
  call void (ptr, ...) @event_warn(ptr noundef @.str.3, i32 noundef %22)
  store i32 -1, ptr %2, align 4
  store i32 1, ptr %5, align 4
  br label %25

23:                                               ; preds = %15
  br label %24

24:                                               ; preds = %23, %11
  store i32 0, ptr %2, align 4
  store i32 1, ptr %5, align 4
  br label %25

25:                                               ; preds = %24, %21, %9
  call void @llvm.lifetime.end.p0(i64 4, ptr %4) #11
  %26 = load i32, ptr %2, align 4
  ret i32 %26
}