; Function Attrs: nounwind uwtable
define range(i32 -1, 1) i32 @evutil_make_socket_closeonexec(i32 noundef %0) local_unnamed_addr #0 {
  %2 = tail call i32 (i32, i32, ...) @fcntl(i32 noundef %0, i32 noundef 1, ptr noundef null) #30
  %3 = icmp slt i32 %2, 0
  br i1 %3, label %.sink.split, label %4

4:                                                ; preds = %1
  %5 = and i32 %2, 1
  %.not = icmp eq i32 %5, 0
  br i1 %.not, label %6, label %10

6:                                                ; preds = %4
  %7 = or disjoint i32 %2, 1
  %8 = tail call i32 (i32, i32, ...) @fcntl(i32 noundef %0, i32 noundef 2, i32 noundef %7) #30
  %9 = icmp eq i32 %8, -1
  br i1 %9, label %.sink.split, label %10

.sink.split:                                      ; preds = %6, %1
  %.str.3.sink = phi ptr [ @.str.2, %1 ], [ @.str.3, %6 ]
  tail call void (ptr, ...) @event_warn(ptr noundef nonnull %.str.3.sink, i32 noundef %0) #30
  br label %10

10:                                               ; preds = %.sink.split, %4, %6
  %.0 = phi i32 [ 0, %6 ], [ 0, %4 ], [ -1, %.sink.split ]
  ret i32 %.0
}